target datalayout = "e-m:e-p270:32:32-p271:32:32-p272:64:64-i64:64-i128:128-f80:128-n8:16:32:64-S128"
target triple = "x86_64-pc-linux-gnu"

%struct.object_id = type { [32 x i8], i32 }
%struct.hashmap = type { ptr, ptr, ptr, i32, i32, i32, i32, i8 }
%struct.index_state = type { ptr, i32, i32, i32, i32, ptr, ptr, ptr, %struct.cache_time, i8, i32, %struct.hashmap, %struct.hashmap, %struct.object_id, ptr, ptr, ptr, ptr, ptr, ptr, ptr }
%struct.cache_time = type { i32, i32 }

@direction = internal global i32 0, align 4

; Function Attrs: nounwind uwtable
define internal ptr @read_attr_from_blob(ptr noundef %0, ptr noundef %1, ptr noundef %2, i32 noundef %3) #0 {
  %5 = alloca ptr, align 8
  %6 = alloca ptr, align 8
  %7 = alloca ptr, align 8
  %8 = alloca ptr, align 8
  %9 = alloca i32, align 4
  %10 = alloca %struct.object_id, align 4
  %11 = alloca i64, align 8
  %12 = alloca i32, align 4
  %13 = alloca ptr, align 8
  %14 = alloca i16, align 2
  %15 = alloca i32, align 4
  store ptr %0, ptr %6, align 8, !tbaa !64
  store ptr %1, ptr %7, align 8, !tbaa !66
  store ptr %2, ptr %8, align 8, !tbaa !9
  store i32 %3, ptr %9, align 4, !tbaa !13
  call void @llvm.lifetime.start.p0(i64 36, ptr %10) #11
  call void @llvm.lifetime.start.p0(i64 8, ptr %11) #11
  call void @llvm.lifetime.start.p0(i64 4, ptr %12) #11
  call void @llvm.lifetime.start.p0(i64 8, ptr %13) #11
  call void @llvm.lifetime.start.p0(i64 2, ptr %14) #11
  %16 = load ptr, ptr %7, align 8, !tbaa !66
  %17 = icmp ne ptr %16, null
  br i1 %17, label %19, label %18

18:                                               ; preds = %4
  store ptr null, ptr %5, align 8
  store i32 1, ptr %15, align 4
  br label %46

19:                                               ; preds = %4
  %20 = load ptr, ptr %6, align 8, !tbaa !64
  %21 = getelementptr inbounds nuw %struct.index_state, ptr %20, i32 0, i32 19
  %22 = load ptr, ptr %21, align 8, !tbaa !143
  %23 = load ptr, ptr %7, align 8, !tbaa !66
  %24 = load ptr, ptr %8, align 8, !tbaa !9
  %25 = call i32 @get_tree_entry(ptr noundef %22, ptr noundef %23, ptr noundef %24, ptr noundef %10, ptr noundef %14)
  %26 = icmp ne i32 %25, 0
  br i1 %26, label %27, label %28

27:                                               ; preds = %19
  store ptr null, ptr %5, align 8
  store i32 1, ptr %15, align 4
  br label %46

28:                                               ; preds = %19
  %29 = load ptr, ptr %6, align 8, !tbaa !64
  %30 = getelementptr inbounds nuw %struct.index_state, ptr %29, i32 0, i32 19
  %31 = load ptr, ptr %30, align 8, !tbaa !143
  %32 = call ptr @repo_read_object_file(ptr noundef %31, ptr noundef %10, ptr noundef %12, ptr noundef %11)
  store ptr %32, ptr %13, align 8, !tbaa !50
  %33 = load ptr, ptr %13, align 8, !tbaa !50
  %34 = icmp ne ptr %33, null
  br i1 %34, label %35, label %38

35:                                               ; preds = %28
  %36 = load i32, ptr %12, align 4, !tbaa !13
  %37 = icmp ne i32 %36, 3
  br i1 %37, label %38, label %40

38:                                               ; preds = %35, %28
  %39 = load ptr, ptr %13, align 8, !tbaa !50
  call void @free(ptr noundef %39) #11
  store ptr null, ptr %5, align 8
  store i32 1, ptr %15, align 4
  br label %46

40:                                               ; preds = %35
  %41 = load ptr, ptr %13, align 8, !tbaa !50
  %42 = load i64, ptr %11, align 8, !tbaa !11
  %43 = load ptr, ptr %8, align 8, !tbaa !9
  %44 = load i32, ptr %9, align 4, !tbaa !13
  %45 = call ptr @read_attr_from_buf(ptr noundef %41, i64 noundef %42, ptr noundef %43, i32 noundef %44)
  store ptr %45, ptr %5, align 8
  store i32 1, ptr %15, align 4
  br label %46

46:                                               ; preds = %40, %38, %27, %18
  call void @llvm.lifetime.end.p0(i64 2, ptr %14) #11
  call void @llvm.lifetime.end.p0(i64 8, ptr %13) #11
  call void @llvm.lifetime.end.p0(i64 4, ptr %12) #11
  call void @llvm.lifetime.end.p0(i64 8, ptr %11) #11
  call void @llvm.lifetime.end.p0(i64 36, ptr %10) #11
  %47 = load ptr, ptr %5, align 8
  ret ptr %47
}

; Function Attrs: nounwind uwtable
define internal ptr @read_attr(ptr noundef %0, ptr noundef %1, ptr noundef %2, i32 noundef %3) #0 {
  %5 = alloca ptr, align 8
  %6 = alloca ptr, align 8
  %7 = alloca ptr, align 8
  %8 = alloca i32, align 4
  %9 = alloca ptr, align 8
  store ptr %0, ptr %5, align 8, !tbaa !64
  store ptr %1, ptr %6, align 8, !tbaa !66
  store ptr %2, ptr %7, align 8, !tbaa !9
  store i32 %3, ptr %8, align 4, !tbaa !13
  call void @llvm.lifetime.start.p0(i64 8, ptr %9) #11
  store ptr null, ptr %9, align 8, !tbaa !56
  %10 = load i32, ptr @direction, align 4, !tbaa !13
  %11 = icmp eq i32 %10, 2
  br i1 %11, label %12, label %17

12:                                               ; preds = %4
  %13 = load ptr, ptr %5, align 8, !tbaa !64
  %14 = load ptr, ptr %7, align 8, !tbaa !9
  %15 = load i32, ptr %8, align 4, !tbaa !13
  %16 = call ptr @read_attr_from_index(ptr noundef %13, ptr noundef %14, i32 noundef %15)
  store ptr %16, ptr %9, align 8, !tbaa !56
  br label %63

17:                                               ; preds = %4
  %18 = load ptr, ptr %6, align 8, !tbaa !66
  %19 = icmp ne ptr %18, null
  br i1 %19, label %20, label %26

20:                                               ; preds = %17
  %21 = load ptr, ptr %5, align 8, !tbaa !64
  %22 = load ptr, ptr %6, align 8, !tbaa !66
  %23 = load ptr, ptr %7, align 8, !tbaa !9
  %24 = load i32, ptr %8, align 4, !tbaa !13
  %25 = call ptr @read_attr_from_blob(ptr noundef %21, ptr noundef %22, ptr noundef %23, i32 noundef %24)
  store ptr %25, ptr %9, align 8, !tbaa !56
  br label %62

26:                                               ; preds = %17
  %27 = call i32 @is_bare_repository()
  %28 = icmp ne i32 %27, 0
  br i1 %28, label %61, label %29

29:                                               ; preds = %26
  %30 = load i32, ptr @direction, align 4, !tbaa !13
  %31 = icmp eq i32 %30, 1
  br i1 %31, label %32, label %44

32:                                               ; preds = %29
  %33 = load ptr, ptr %5, align 8, !tbaa !64
  %34 = load ptr, ptr %7, align 8, !tbaa !9
  %35 = load i32, ptr %8, align 4, !tbaa !13
  %36 = call ptr @read_attr_from_index(ptr noundef %33, ptr noundef %34, i32 noundef %35)
  store ptr %36, ptr %9, align 8, !tbaa !56
  %37 = load ptr, ptr %9, align 8, !tbaa !56
  %38 = icmp ne ptr %37, null
  br i1 %38, label %43, label %39

39:                                               ; preds = %32
  %40 = load ptr, ptr %7, align 8, !tbaa !9
  %41 = load i32, ptr %8, align 4, !tbaa !13
  %42 = call ptr @read_attr_from_file(ptr noundef %40, i32 noundef %41)
  store ptr %42, ptr %9, align 8, !tbaa !56
  br label %43

43:                                               ; preds = %39, %32
  br label %60

44:                                               ; preds = %29
  %45 = load i32, ptr @direction, align 4, !tbaa !13
  %46 = icmp eq i32 %45, 0
  br i1 %46, label %47, label %59

47:                                               ; preds = %44
  %48 = load ptr, ptr %7, align 8, !tbaa !9
  %49 = load i32, ptr %8, align 4, !tbaa !13
  %50 = call ptr @read_attr_from_file(ptr noundef %48, i32 noundef %49)
  store ptr %50, ptr %9, align 8, !tbaa !56
  %51 = load ptr, ptr %9, align 8, !tbaa !56
  %52 = icmp ne ptr %51, null
  br i1 %52, label %58, label %53

53:                                               ; preds = %47
  %54 = load ptr, ptr %5, align 8, !tbaa !64
  %55 = load ptr, ptr %7, align 8, !tbaa !9
  %56 = load i32, ptr %8, align 4, !tbaa !13
  %57 = call ptr @read_attr_from_index(ptr noundef %54, ptr noundef %55, i32 noundef %56)
  store ptr %57, ptr %9, align 8, !tbaa !56
  br label %58

58:                                               ; preds = %53, %47
  br label %59

59:                                               ; preds = %58, %44
  br label %60

60:                                               ; preds = %59, %43
  br label %61

61:                                               ; preds = %60, %26
  br label %62

62:                                               ; preds = %61, %20
  br label %63

63:                                               ; preds = %62, %12
  %64 = load ptr, ptr %9, align 8, !tbaa !56
  %65 = icmp ne ptr %64, null
  br i1 %65, label %68, label %66

66:                                               ; preds = %63
  %67 = call ptr @xcalloc(i64 noundef 1, i64 noundef 40)
  store ptr %67, ptr %9, align 8, !tbaa !56
  br label %68

68:                                               ; preds = %66, %63
  %69 = load ptr, ptr %9, align 8, !tbaa !56
  call void @llvm.lifetime.end.p0(i64 8, ptr %9) #11
  ret ptr %69
}