; Function Attrs: nounwind uwtable
define internal fastcc ptr @read_attr(ptr noundef %0, ptr noundef %1, ptr noundef %2, i32 noundef range(i32 2, 4) %3) unnamed_addr #1 {
  %5 = alloca %struct.object_id, align 4
  %6 = alloca i64, align 8
  %7 = alloca i32, align 4
  %8 = alloca i16, align 2
  %9 = load i32, ptr @direction, align 4, !tbaa !22
  %10 = icmp eq i32 %9, 2
  br i1 %10, label %11, label %13

11:                                               ; preds = %4
  %12 = tail call fastcc ptr @read_attr_from_index(ptr noundef %0, ptr noundef %2, i32 noundef %3)
  br label %40

13:                                               ; preds = %4
  %.not = icmp eq ptr %1, null
  br i1 %.not, label %28, label %14

14:                                               ; preds = %13
  call void @llvm.lifetime.start.p0(i64 36, ptr nonnull %5) #21
  call void @llvm.lifetime.start.p0(i64 8, ptr nonnull %6) #21
  call void @llvm.lifetime.start.p0(i64 4, ptr nonnull %7) #21
  call void @llvm.lifetime.start.p0(i64 2, ptr nonnull %8) #21
  %15 = getelementptr inbounds nuw i8, ptr %0, i64 240
  %16 = load ptr, ptr %15, align 8, !tbaa !126
  %17 = call i32 @get_tree_entry(ptr noundef %16, ptr noundef nonnull %1, ptr noundef %2, ptr noundef nonnull %5, ptr noundef nonnull %8) #21
  %.not13.i = icmp eq i32 %17, 0
  br i1 %.not13.i, label %18, label %read_attr_from_blob.exit

18:                                               ; preds = %14
  %19 = load ptr, ptr %15, align 8, !tbaa !126
  %20 = call ptr @repo_read_object_file(ptr noundef %19, ptr noundef nonnull %5, ptr noundef nonnull %7, ptr noundef nonnull %6) #21
  %21 = icmp eq ptr %20, null
  %22 = load i32, ptr %7, align 4
  %23 = icmp ne i32 %22, 3
  %or.cond.i = select i1 %21, i1 true, i1 %23
  br i1 %or.cond.i, label %24, label %25

24:                                               ; preds = %18
  call void @free(ptr noundef %20) #21
  br label %read_attr_from_blob.exit

25:                                               ; preds = %18
  %26 = load i64, ptr %6, align 8, !tbaa !31
  %27 = call fastcc ptr @read_attr_from_buf(ptr noundef %20, i64 noundef %26, ptr noundef %2, i32 noundef range(i32 2, 4) %3)
  br label %read_attr_from_blob.exit

read_attr_from_blob.exit:                         ; preds = %14, %24, %25
  %.0.i = phi ptr [ null, %24 ], [ %27, %25 ], [ null, %14 ]
  call void @llvm.lifetime.end.p0(i64 2, ptr nonnull %8) #21
  call void @llvm.lifetime.end.p0(i64 4, ptr nonnull %7) #21
  call void @llvm.lifetime.end.p0(i64 8, ptr nonnull %6) #21
  call void @llvm.lifetime.end.p0(i64 36, ptr nonnull %5) #21
  br label %40

28:                                               ; preds = %13
  %29 = tail call i32 @is_bare_repository() #21
  %.not25 = icmp eq i32 %29, 0
  br i1 %.not25, label %30, label %.thread

30:                                               ; preds = %28
  %31 = load i32, ptr @direction, align 4, !tbaa !22
  switch i32 %31, label %.thread [
    i32 1, label %32
    i32 0, label %36
  ]

32:                                               ; preds = %30
  %33 = tail call fastcc ptr @read_attr_from_index(ptr noundef %0, ptr noundef %2, i32 noundef %3)
  %.not27 = icmp eq ptr %33, null
  br i1 %.not27, label %34, label %.thread32

34:                                               ; preds = %32
  %35 = tail call fastcc ptr @read_attr_from_file(ptr noundef %2, i32 noundef %3)
  br label %40

36:                                               ; preds = %30
  %37 = tail call fastcc ptr @read_attr_from_file(ptr noundef %2, i32 noundef %3)
  %.not26 = icmp eq ptr %37, null
  br i1 %.not26, label %38, label %.thread32

38:                                               ; preds = %36
  %39 = tail call fastcc ptr @read_attr_from_index(ptr noundef %0, ptr noundef %2, i32 noundef %3)
  br label %40

40:                                               ; preds = %read_attr_from_blob.exit, %34, %38, %11
  %.0 = phi ptr [ %12, %11 ], [ %.0.i, %read_attr_from_blob.exit ], [ %35, %34 ], [ %39, %38 ]
  %.not28 = icmp eq ptr %.0, null
  br i1 %.not28, label %.thread, label %.thread32

.thread:                                          ; preds = %30, %28, %40
  %41 = call ptr @xcalloc(i64 noundef 1, i64 noundef 40) #21
  br label %.thread32

.thread32:                                        ; preds = %36, %32, %.thread, %40
  %.1 = phi ptr [ %.0, %40 ], [ %41, %.thread ], [ %37, %36 ], [ %33, %32 ]
  ret ptr %.1
}